target datalayout = "e-m:e-p270:32:32-p271:32:32-p272:64:64-i64:64-i128:128-f80:128-n8:16:32:64-S128"
target triple = "x86_64-pc-linux-gnu"

%struct.LLVMIntrinsics = type { i32, i32, i32, i32, i32, i32, i32, i32, i32, i32, i32, i32, i32, i32, i32, i32, i32, i32, i32, i32, i32, i32, i32, i32, i32, i32, i32, i32, i32, i32, i32, i32, i32, i32, i32, i32, i32, i32, i32, i32, i32, i32, i32, i32, i32, i32, i32, i32, i32, i32, i32, i32, i32, i32, i32, i32, i32, i32, i32, i32, i32, i32, i32, i32, i32, i32, i32, i32, i32, i32, i32, i32, i32, i32, i32, i32, i32, i32, i32, i32, i32, i32, i32, i32, i32, i32, i32, i32, i32, i32, i32, i32, i32, i32 }
%struct.BEValue = type { i8, i32, ptr, ptr, ptr }
%struct.GenContext_ = type { i8, ptr, ptr, ptr, ptr, ptr, ptr, ptr, ptr, ptr, ptr, ptr, ptr, ptr, ptr, ptr, ptr, ptr, ptr, ptr, ptr, ptr, ptr, ptr, ptr, ptr, ptr, ptr, ptr, ptr, ptr, ptr, ptr, %struct.anon.85, i32, i32, %struct.DebugContext, ptr, ptr, ptr, %struct.BEValue, i8, %union.SourceSpan, ptr, ptr, ptr, ptr }
%struct.anon.85 = type { ptr, ptr, ptr }
%struct.DebugContext = type { i16, ptr, ptr, %struct.DebugFile_, ptr, ptr, ptr, ptr }
%struct.DebugFile_ = type { i16, ptr }
%union.SourceSpan = type { i64 }
%struct.Type_ = type { i32, ptr, ptr, ptr, %union.anon.97, ptr, ptr, %union.anon.99 }
%union.anon.97 = type { ptr }
%union.anon.99 = type { %struct.TypeFunction }
%struct.TypeFunction = type { ptr, ptr, ptr }
%struct.TypeArray = type { ptr, i32 }

@intrinsic_id = external global %struct.LLVMIntrinsics, align 4
@.str.3 = private unnamed_addr constant [1 x i8] zeroinitializer, align 1
@.str.9 = private unnamed_addr constant [36 x i8] c"FATAL ERROR %s -> in %s @ in %s:%d \00", align 1
@.str.10 = private unnamed_addr constant [22 x i8] c"Should be unreachable\00", align 1
@.str.11 = private unnamed_addr constant [118 x i8] c"generated/home/dtcxzyw/WorkSpace/Projects/compilers/llvm-opt-benchmark/bench/c3c/c3c/src/compiler/llvm_codegen_expr.c\00", align 1
@type_bool = external global ptr, align 8
@.str.35 = private unnamed_addr constant [3 x i8] c"eq\00", align 1
@.str.36 = private unnamed_addr constant [4 x i8] c"neq\00", align 1
@.str.37 = private unnamed_addr constant [3 x i8] c"ge\00", align 1
@.str.38 = private unnamed_addr constant [3 x i8] c"gt\00", align 1
@.str.39 = private unnamed_addr constant [3 x i8] c"le\00", align 1
@.str.40 = private unnamed_addr constant [3 x i8] c"lt\00", align 1
@__func__.llvm_emit_float_comp = private unnamed_addr constant [21 x i8] c"llvm_emit_float_comp\00", align 1

; Function Attrs: nounwind uwtable
define dso_local ptr @llvm_emit_call_intrinsic(ptr noundef %0, i32 noundef %1, ptr noundef %2, i32 noundef %3, ptr noundef %4, i32 noundef %5) #0 {
  %7 = alloca ptr, align 8
  %8 = alloca i32, align 4
  %9 = alloca ptr, align 8
  %10 = alloca i32, align 4
  %11 = alloca ptr, align 8
  %12 = alloca i32, align 4
  %13 = alloca ptr, align 8
  %14 = alloca ptr, align 8
  store ptr %0, ptr %7, align 8
  store i32 %1, ptr %8, align 4
  store ptr %2, ptr %9, align 8
  store i32 %3, ptr %10, align 4
  store ptr %4, ptr %11, align 8
  store i32 %5, ptr %12, align 4
  %15 = load ptr, ptr %7, align 8
  %16 = getelementptr inbounds %struct.GenContext_, ptr %15, i32 0, i32 1
  %17 = load ptr, ptr %16, align 8
  %18 = load i32, ptr %8, align 4
  %19 = load ptr, ptr %9, align 8
  %20 = load i32, ptr %10, align 4
  %21 = zext i32 %20 to i64
  %22 = call ptr @LLVMGetIntrinsicDeclaration(ptr noundef %17, i32 noundef %18, ptr noundef %19, i64 noundef %21)
  store ptr %22, ptr %13, align 8
  %23 = load ptr, ptr %7, align 8
  %24 = getelementptr inbounds %struct.GenContext_, ptr %23, i32 0, i32 5
  %25 = load ptr, ptr %24, align 8
  %26 = load i32, ptr %8, align 4
  %27 = load ptr, ptr %9, align 8
  %28 = load i32, ptr %10, align 4
  %29 = zext i32 %28 to i64
  %30 = call ptr @LLVMIntrinsicGetType(ptr noundef %25, i32 noundef %26, ptr noundef %27, i64 noundef %29)
  store ptr %30, ptr %14, align 8
  %31 = load ptr, ptr %7, align 8
  %32 = getelementptr inbounds %struct.GenContext_, ptr %31, i32 0, i32 8
  %33 = load ptr, ptr %32, align 8
  %34 = load ptr, ptr %14, align 8
  %35 = load ptr, ptr %13, align 8
  %36 = load ptr, ptr %11, align 8
  %37 = load i32, ptr %12, align 4
  %38 = call ptr @LLVMBuildCall2(ptr noundef %33, ptr noundef %34, ptr noundef %35, ptr noundef %36, i32 noundef %37, ptr noundef @.str.3)
  ret ptr %38
}

; Function Attrs: nounwind uwtable
define internal void @llvm_convert_vector_comparison(ptr noundef %0, ptr noundef %1, ptr noundef %2, ptr noundef %3, i1 noundef zeroext %4) #0 {
  %6 = alloca ptr, align 8
  %7 = alloca ptr, align 8
  %8 = alloca ptr, align 8
  %9 = alloca ptr, align 8
  %10 = alloca i8, align 1
  %11 = alloca i32, align 4
  %12 = alloca ptr, align 8
  %13 = alloca i32, align 4
  %14 = alloca ptr, align 8
  store ptr %0, ptr %6, align 8
  store ptr %1, ptr %7, align 8
  store ptr %2, ptr %8, align 8
  store ptr %3, ptr %9, align 8
  %15 = zext i1 %4 to i8
  store i8 %15, ptr %10, align 1
  %16 = load ptr, ptr %9, align 8
  %17 = getelementptr inbounds %struct.Type_, ptr %16, i32 0, i32 7
  %18 = getelementptr inbounds %struct.TypeArray, ptr %17, i32 0, i32 1
  %19 = load i32, ptr %18, align 8
  store i32 %19, ptr %11, align 4
  %20 = load ptr, ptr %8, align 8
  %21 = call ptr @LLVMTypeOf(ptr noundef %20)
  store ptr %21, ptr %12, align 8
  %22 = load i32, ptr %11, align 4
  %23 = icmp ule i32 %22, 64
  br i1 %23, label %24, label %25

24:                                               ; preds = %5
  br label %25

25:                                               ; preds = %24, %5
  %26 = load i8, ptr %10, align 1
  %27 = trunc i8 %26 to i1
  br i1 %27, label %28, label %30

28:                                               ; preds = %25
  %29 = load i32, ptr getelementptr inbounds (%struct.LLVMIntrinsics, ptr @intrinsic_id, i32 0, i32 88), align 4
  br label %32

30:                                               ; preds = %25
  %31 = load i32, ptr getelementptr inbounds (%struct.LLVMIntrinsics, ptr @intrinsic_id, i32 0, i32 89), align 4
  br label %32

32:                                               ; preds = %30, %28
  %33 = phi i32 [ %29, %28 ], [ %31, %30 ]
  store i32 %33, ptr %13, align 4
  %34 = load ptr, ptr %6, align 8
  %35 = load i32, ptr %13, align 4
  %36 = call ptr @llvm_emit_call_intrinsic(ptr noundef %34, i32 noundef %35, ptr noundef %12, i32 noundef 1, ptr noundef %8, i32 noundef 1)
  store ptr %36, ptr %14, align 8
  %37 = load ptr, ptr %7, align 8
  %38 = load ptr, ptr %14, align 8
  %39 = load ptr, ptr @type_bool, align 8
  call void @llvm_value_set(ptr noundef %37, ptr noundef %38, ptr noundef %39)
  ret void
}

; Function Attrs: nounwind uwtable
define internal void @llvm_emit_float_comp(ptr noundef %0, ptr noundef %1, ptr noundef %2, ptr noundef %3, i32 noundef %4, ptr noundef %5) #0 {
  %7 = alloca ptr, align 8
  %8 = alloca ptr, align 8
  %9 = alloca ptr, align 8
  %10 = alloca ptr, align 8
  %11 = alloca i32, align 4
  %12 = alloca ptr, align 8
  %13 = alloca ptr, align 8
  %14 = alloca ptr, align 8
  %15 = alloca ptr, align 8
  store ptr %0, ptr %7, align 8
  store ptr %1, ptr %8, align 8
  store ptr %2, ptr %9, align 8
  store ptr %3, ptr %10, align 8
  store i32 %4, ptr %11, align 4
  store ptr %5, ptr %12, align 8
  %16 = load ptr, ptr %7, align 8
  %17 = load ptr, ptr %9, align 8
  call void @llvm_value_rvalue(ptr noundef %16, ptr noundef %17)
  %18 = load ptr, ptr %7, align 8
  %19 = load ptr, ptr %10, align 8
  call void @llvm_value_rvalue(ptr noundef %18, ptr noundef %19)
  %20 = load ptr, ptr %9, align 8
  %21 = getelementptr inbounds %struct.BEValue, ptr %20, i32 0, i32 3
  %22 = load ptr, ptr %21, align 8
  store ptr %22, ptr %13, align 8
  %23 = load ptr, ptr %10, align 8
  %24 = getelementptr inbounds %struct.BEValue, ptr %23, i32 0, i32 3
  %25 = load ptr, ptr %24, align 8
  store ptr %25, ptr %14, align 8
  %26 = load i32, ptr %11, align 4
  switch i32 %26, label %69 [
    i32 19, label %27
    i32 18, label %34
    i32 15, label %41
    i32 14, label %48
    i32 17, label %55
    i32 16, label %62
  ]

27:                                               ; preds = %6
  %28 = load ptr, ptr %7, align 8
  %29 = getelementptr inbounds %struct.GenContext_, ptr %28, i32 0, i32 8
  %30 = load ptr, ptr %29, align 8
  %31 = load ptr, ptr %13, align 8
  %32 = load ptr, ptr %14, align 8
  %33 = call ptr @LLVMBuildFCmp(ptr noundef %30, i32 noundef 1, ptr noundef %31, ptr noundef %32, ptr noundef @.str.35)
  store ptr %33, ptr %15, align 8
  br label %72

34:                                               ; preds = %6
  %35 = load ptr, ptr %7, align 8
  %36 = getelementptr inbounds %struct.GenContext_, ptr %35, i32 0, i32 8
  %37 = load ptr, ptr %36, align 8
  %38 = load ptr, ptr %13, align 8
  %39 = load ptr, ptr %14, align 8
  %40 = call ptr @LLVMBuildFCmp(ptr noundef %37, i32 noundef 6, ptr noundef %38, ptr noundef %39, ptr noundef @.str.36)
  store ptr %40, ptr %15, align 8
  br label %72

41:                                               ; preds = %6
  %42 = load ptr, ptr %7, align 8
  %43 = getelementptr inbounds %struct.GenContext_, ptr %42, i32 0, i32 8
  %44 = load ptr, ptr %43, align 8
  %45 = load ptr, ptr %13, align 8
  %46 = load ptr, ptr %14, align 8
  %47 = call ptr @LLVMBuildFCmp(ptr noundef %44, i32 noundef 3, ptr noundef %45, ptr noundef %46, ptr noundef @.str.37)
  store ptr %47, ptr %15, align 8
  br label %72

48:                                               ; preds = %6
  %49 = load ptr, ptr %7, align 8
  %50 = getelementptr inbounds %struct.GenContext_, ptr %49, i32 0, i32 8
  %51 = load ptr, ptr %50, align 8
  %52 = load ptr, ptr %13, align 8
  %53 = load ptr, ptr %14, align 8
  %54 = call ptr @LLVMBuildFCmp(ptr noundef %51, i32 noundef 2, ptr noundef %52, ptr noundef %53, ptr noundef @.str.38)
  store ptr %54, ptr %15, align 8
  br label %72

55:                                               ; preds = %6
  %56 = load ptr, ptr %7, align 8
  %57 = getelementptr inbounds %struct.GenContext_, ptr %56, i32 0, i32 8
  %58 = load ptr, ptr %57, align 8
  %59 = load ptr, ptr %13, align 8
  %60 = load ptr, ptr %14, align 8
  %61 = call ptr @LLVMBuildFCmp(ptr noundef %58, i32 noundef 5, ptr noundef %59, ptr noundef %60, ptr noundef @.str.39)
  store ptr %61, ptr %15, align 8
  br label %72

62:                                               ; preds = %6
  %63 = load ptr, ptr %7, align 8
  %64 = getelementptr inbounds %struct.GenContext_, ptr %63, i32 0, i32 8
  %65 = load ptr, ptr %64, align 8
  %66 = load ptr, ptr %13, align 8
  %67 = load ptr, ptr %14, align 8
  %68 = call ptr @LLVMBuildFCmp(ptr noundef %65, i32 noundef 4, ptr noundef %66, ptr noundef %67, ptr noundef @.str.40)
  store ptr %68, ptr %15, align 8
  br label %72

69:                                               ; preds = %6
  br label %70

70:                                               ; preds = %69
  call void (ptr, ...) @error_exit(ptr noundef @.str.9, ptr noundef @.str.10, ptr noundef @__func__.llvm_emit_float_comp, ptr noundef @.str.11, i32 noundef 3766) #7
  unreachable

71:                                               ; No predecessors!
  br label %72

72:                                               ; preds = %71, %62, %55, %48, %41, %34, %27
  %73 = load ptr, ptr %12, align 8
  %74 = icmp ne ptr %73, null
  br i1 %74, label %75, label %82

75:                                               ; preds = %72
  %76 = load ptr, ptr %7, align 8
  %77 = load ptr, ptr %8, align 8
  %78 = load ptr, ptr %15, align 8
  %79 = load ptr, ptr %12, align 8
  %80 = load i32, ptr %11, align 4
  %81 = icmp eq i32 19, %80
  call void @llvm_convert_vector_comparison(ptr noundef %76, ptr noundef %77, ptr noundef %78, ptr noundef %79, i1 noundef zeroext %81)
  br label %86

82:                                               ; preds = %72
  %83 = load ptr, ptr %8, align 8
  %84 = load ptr, ptr %15, align 8
  %85 = load ptr, ptr @type_bool, align 8
  call void @llvm_value_set(ptr noundef %83, ptr noundef %84, ptr noundef %85)
  br label %86

86:                                               ; preds = %82, %75
  ret void
}