; Function Attrs: nounwind uwtable
define internal fastcc void @llvm_emit_float_comp(ptr noundef %0, ptr noundef %1, ptr noundef %2, ptr noundef %3, i32 noundef %4, ptr noundef readnone %5) unnamed_addr #0 {
  %7 = alloca ptr, align 8
  %8 = alloca ptr, align 8
  tail call void @llvm_value_rvalue(ptr noundef %0, ptr noundef %2) #10
  tail call void @llvm_value_rvalue(ptr noundef %0, ptr noundef %3) #10
  %9 = getelementptr inbounds i8, ptr %2, i64 16
  %10 = load ptr, ptr %9, align 8
  %11 = getelementptr inbounds i8, ptr %3, i64 16
  %12 = load ptr, ptr %11, align 8
  switch i32 %4, label %37 [
    i32 19, label %13
    i32 18, label %17
    i32 15, label %21
    i32 14, label %25
    i32 17, label %29
    i32 16, label %33
  ]

13:                                               ; preds = %6
  %14 = getelementptr inbounds i8, ptr %0, i64 64
  %15 = load ptr, ptr %14, align 8
  %16 = tail call ptr @LLVMBuildFCmp(ptr noundef %15, i32 noundef 1, ptr noundef %10, ptr noundef %12, ptr noundef nonnull @.str.35) #10
  br label %38

17:                                               ; preds = %6
  %18 = getelementptr inbounds i8, ptr %0, i64 64
  %19 = load ptr, ptr %18, align 8
  %20 = tail call ptr @LLVMBuildFCmp(ptr noundef %19, i32 noundef 6, ptr noundef %10, ptr noundef %12, ptr noundef nonnull @.str.36) #10
  br label %38

21:                                               ; preds = %6
  %22 = getelementptr inbounds i8, ptr %0, i64 64
  %23 = load ptr, ptr %22, align 8
  %24 = tail call ptr @LLVMBuildFCmp(ptr noundef %23, i32 noundef 3, ptr noundef %10, ptr noundef %12, ptr noundef nonnull @.str.37) #10
  br label %38

25:                                               ; preds = %6
  %26 = getelementptr inbounds i8, ptr %0, i64 64
  %27 = load ptr, ptr %26, align 8
  %28 = tail call ptr @LLVMBuildFCmp(ptr noundef %27, i32 noundef 2, ptr noundef %10, ptr noundef %12, ptr noundef nonnull @.str.38) #10
  br label %38

29:                                               ; preds = %6
  %30 = getelementptr inbounds i8, ptr %0, i64 64
  %31 = load ptr, ptr %30, align 8
  %32 = tail call ptr @LLVMBuildFCmp(ptr noundef %31, i32 noundef 5, ptr noundef %10, ptr noundef %12, ptr noundef nonnull @.str.39) #10
  br label %38

33:                                               ; preds = %6
  %34 = getelementptr inbounds i8, ptr %0, i64 64
  %35 = load ptr, ptr %34, align 8
  %36 = tail call ptr @LLVMBuildFCmp(ptr noundef %35, i32 noundef 4, ptr noundef %10, ptr noundef %12, ptr noundef nonnull @.str.40) #10
  br label %38

37:                                               ; preds = %6
  tail call void (ptr, ...) @error_exit(ptr noundef nonnull @.str.9, ptr noundef nonnull @.str.10, ptr noundef nonnull @__func__.llvm_emit_float_comp, ptr noundef nonnull @.str.11, i32 noundef 3766) #11
  unreachable

38:                                               ; preds = %33, %29, %25, %21, %17, %13
  %.0 = phi ptr [ %36, %33 ], [ %32, %29 ], [ %28, %25 ], [ %24, %21 ], [ %20, %17 ], [ %16, %13 ]
  %.not = icmp eq ptr %5, null
  br i1 %.not, label %55, label %39

39:                                               ; preds = %38
  %40 = icmp eq i32 %4, 19
  call void @llvm.lifetime.start.p0(i64 8, ptr nonnull %7)
  call void @llvm.lifetime.start.p0(i64 8, ptr nonnull %8)
  store ptr %.0, ptr %7, align 8
  %41 = tail call ptr @LLVMTypeOf(ptr noundef %.0) #10
  store ptr %41, ptr %8, align 8
  %42 = load i32, ptr getelementptr inbounds (%struct.LLVMIntrinsics, ptr @intrinsic_id, i64 0, i32 88), align 4
  %43 = load i32, ptr getelementptr inbounds (%struct.LLVMIntrinsics, ptr @intrinsic_id, i64 0, i32 89), align 4
  %44 = select i1 %40, i32 %42, i32 %43
  %45 = getelementptr inbounds i8, ptr %0, i64 8
  %46 = load ptr, ptr %45, align 8
  %47 = call ptr @LLVMGetIntrinsicDeclaration(ptr noundef %46, i32 noundef %44, ptr noundef nonnull %8, i64 noundef 1) #10
  %48 = getelementptr inbounds i8, ptr %0, i64 40
  %49 = load ptr, ptr %48, align 8
  %50 = call ptr @LLVMIntrinsicGetType(ptr noundef %49, i32 noundef %44, ptr noundef nonnull %8, i64 noundef 1) #10
  %51 = getelementptr inbounds i8, ptr %0, i64 64
  %52 = load ptr, ptr %51, align 8
  %53 = call ptr @LLVMBuildCall2(ptr noundef %52, ptr noundef %50, ptr noundef %47, ptr noundef nonnull %7, i32 noundef 1, ptr noundef nonnull @.str.3) #10
  %54 = load ptr, ptr @type_bool, align 8
  call void @llvm_value_set(ptr noundef %1, ptr noundef %53, ptr noundef %54) #10
  call void @llvm.lifetime.end.p0(i64 8, ptr nonnull %7)
  call void @llvm.lifetime.end.p0(i64 8, ptr nonnull %8)
  br label %57

55:                                               ; preds = %38
  %56 = load ptr, ptr @type_bool, align 8
  tail call void @llvm_value_set(ptr noundef %1, ptr noundef %.0, ptr noundef %56) #10
  br label %57

57:                                               ; preds = %55, %39
  ret void
}